target datalayout = "e-m:e-p270:32:32-p271:32:32-p272:64:64-i64:64-i128:128-f80:128-n8:16:32:64-S128"
target triple = "x86_64-pc-linux-gnu"

%struct.UriTextRangeStructA = type { ptr, ptr }

; Function Attrs: nounwind uwtable
define i32 @uriCompareRangeA(ptr noundef %0, ptr noundef %1) #0 {
  %3 = alloca i32, align 4
  %4 = alloca ptr, align 8
  %5 = alloca ptr, align 8
  %6 = alloca i32, align 4
  %7 = alloca i32, align 4
  store ptr %0, ptr %4, align 8, !tbaa !8
  store ptr %1, ptr %5, align 8, !tbaa !8
  call void @llvm.lifetime.start.p0(i64 4, ptr %6) #5
  %8 = load ptr, ptr %4, align 8, !tbaa !8
  %9 = icmp eq ptr %8, null
  br i1 %9, label %13, label %10

10:                                               ; preds = %2
  %11 = load ptr, ptr %5, align 8, !tbaa !8
  %12 = icmp eq ptr %11, null
  br i1 %12, label %13, label %21

13:                                               ; preds = %10, %2
  %14 = load ptr, ptr %4, align 8, !tbaa !8
  %15 = icmp eq ptr %14, null
  %16 = select i1 %15, i32 0, i32 1
  %17 = load ptr, ptr %5, align 8, !tbaa !8
  %18 = icmp eq ptr %17, null
  %19 = select i1 %18, i32 0, i32 1
  %20 = sub nsw i32 %16, %19
  store i32 %20, ptr %3, align 4
  store i32 1, ptr %7, align 4
  br label %100

21:                                               ; preds = %10
  %22 = load ptr, ptr %4, align 8, !tbaa !8
  %23 = getelementptr inbounds nuw %struct.UriTextRangeStructA, ptr %22, i32 0, i32 0
  %24 = load ptr, ptr %23, align 8, !tbaa !10
  %25 = icmp eq ptr %24, null
  br i1 %25, label %31, label %26

26:                                               ; preds = %21
  %27 = load ptr, ptr %5, align 8, !tbaa !8
  %28 = getelementptr inbounds nuw %struct.UriTextRangeStructA, ptr %27, i32 0, i32 0
  %29 = load ptr, ptr %28, align 8, !tbaa !10
  %30 = icmp eq ptr %29, null
  br i1 %30, label %31, label %43

31:                                               ; preds = %26, %21
  %32 = load ptr, ptr %4, align 8, !tbaa !8
  %33 = getelementptr inbounds nuw %struct.UriTextRangeStructA, ptr %32, i32 0, i32 0
  %34 = load ptr, ptr %33, align 8, !tbaa !10
  %35 = icmp eq ptr %34, null
  %36 = select i1 %35, i32 0, i32 1
  %37 = load ptr, ptr %5, align 8, !tbaa !8
  %38 = getelementptr inbounds nuw %struct.UriTextRangeStructA, ptr %37, i32 0, i32 0
  %39 = load ptr, ptr %38, align 8, !tbaa !10
  %40 = icmp eq ptr %39, null
  %41 = select i1 %40, i32 0, i32 1
  %42 = sub nsw i32 %36, %41
  store i32 %42, ptr %3, align 4
  store i32 1, ptr %7, align 4
  br label %100

43:                                               ; preds = %26
  %44 = load ptr, ptr %4, align 8, !tbaa !8
  %45 = getelementptr inbounds nuw %struct.UriTextRangeStructA, ptr %44, i32 0, i32 1
  %46 = load ptr, ptr %45, align 8, !tbaa !13
  %47 = load ptr, ptr %4, align 8, !tbaa !8
  %48 = getelementptr inbounds nuw %struct.UriTextRangeStructA, ptr %47, i32 0, i32 0
  %49 = load ptr, ptr %48, align 8, !tbaa !10
  %50 = ptrtoint ptr %46 to i64
  %51 = ptrtoint ptr %49 to i64
  %52 = sub i64 %50, %51
  %53 = trunc i64 %52 to i32
  %54 = load ptr, ptr %5, align 8, !tbaa !8
  %55 = getelementptr inbounds nuw %struct.UriTextRangeStructA, ptr %54, i32 0, i32 1
  %56 = load ptr, ptr %55, align 8, !tbaa !13
  %57 = load ptr, ptr %5, align 8, !tbaa !8
  %58 = getelementptr inbounds nuw %struct.UriTextRangeStructA, ptr %57, i32 0, i32 0
  %59 = load ptr, ptr %58, align 8, !tbaa !10
  %60 = ptrtoint ptr %56 to i64
  %61 = ptrtoint ptr %59 to i64
  %62 = sub i64 %60, %61
  %63 = trunc i64 %62 to i32
  %64 = sub nsw i32 %53, %63
  store i32 %64, ptr %6, align 4, !tbaa !14
  %65 = load i32, ptr %6, align 4, !tbaa !14
  %66 = icmp sgt i32 %65, 0
  br i1 %66, label %67, label %68

67:                                               ; preds = %43
  store i32 1, ptr %3, align 4
  store i32 1, ptr %7, align 4
  br label %100

68:                                               ; preds = %43
  %69 = load i32, ptr %6, align 4, !tbaa !14
  %70 = icmp slt i32 %69, 0
  br i1 %70, label %71, label %72

71:                                               ; preds = %68
  store i32 -1, ptr %3, align 4
  store i32 1, ptr %7, align 4
  br label %100

72:                                               ; preds = %68
  br label %73

73:                                               ; preds = %72
  %74 = load ptr, ptr %4, align 8, !tbaa !8
  %75 = getelementptr inbounds nuw %struct.UriTextRangeStructA, ptr %74, i32 0, i32 0
  %76 = load ptr, ptr %75, align 8, !tbaa !10
  %77 = load ptr, ptr %5, align 8, !tbaa !8
  %78 = getelementptr inbounds nuw %struct.UriTextRangeStructA, ptr %77, i32 0, i32 0
  %79 = load ptr, ptr %78, align 8, !tbaa !10
  %80 = load ptr, ptr %4, align 8, !tbaa !8
  %81 = getelementptr inbounds nuw %struct.UriTextRangeStructA, ptr %80, i32 0, i32 1
  %82 = load ptr, ptr %81, align 8, !tbaa !13
  %83 = load ptr, ptr %4, align 8, !tbaa !8
  %84 = getelementptr inbounds nuw %struct.UriTextRangeStructA, ptr %83, i32 0, i32 0
  %85 = load ptr, ptr %84, align 8, !tbaa !10
  %86 = ptrtoint ptr %82 to i64
  %87 = ptrtoint ptr %85 to i64
  %88 = sub i64 %86, %87
  %89 = call i32 @strncmp(ptr noundef %76, ptr noundef %79, i64 noundef %88) #6
  store i32 %89, ptr %6, align 4, !tbaa !14
  %90 = load i32, ptr %6, align 4, !tbaa !14
  %91 = icmp sgt i32 %90, 0
  br i1 %91, label %92, label %93

92:                                               ; preds = %73
  store i32 1, ptr %3, align 4
  store i32 1, ptr %7, align 4
  br label %100

93:                                               ; preds = %73
  %94 = load i32, ptr %6, align 4, !tbaa !14
  %95 = icmp slt i32 %94, 0
  br i1 %95, label %96, label %97

96:                                               ; preds = %93
  store i32 -1, ptr %3, align 4
  store i32 1, ptr %7, align 4
  br label %100

97:                                               ; preds = %93
  br label %98

98:                                               ; preds = %97
  %99 = load i32, ptr %6, align 4, !tbaa !14
  store i32 %99, ptr %3, align 4
  store i32 1, ptr %7, align 4
  br label %100

100:                                              ; preds = %98, %96, %92, %71, %67, %31, %13
  call void @llvm.lifetime.end.p0(i64 4, ptr %6) #5
  %101 = load i32, ptr %3, align 4
  ret i32 %101
}