; Function Attrs: mustprogress nofree nounwind willreturn memory(read, inaccessiblemem: none) uwtable
define range(i32 -1, 2) i32 @uriCompareRangeA(ptr noundef readonly captures(address_is_null) %0, ptr noundef readonly captures(address_is_null) %1) local_unnamed_addr #2 {
  %3 = icmp eq ptr %0, null
  %4 = icmp eq ptr %1, null
  %or.cond = or i1 %3, %4
  br i1 %or.cond, label %5, label %8

5:                                                ; preds = %2
  %not. = xor i1 %3, true
  %6 = zext i1 %not. to i32
  %not.30 = xor i1 %4, true
  %.neg31 = sext i1 %not.30 to i32
  %7 = add nsw i32 %.neg31, %6
  br label %36

8:                                                ; preds = %2
  %9 = load ptr, ptr %0, align 8, !tbaa !3
  %10 = icmp eq ptr %9, null
  %.pre = load ptr, ptr %1, align 8, !tbaa !3
  %11 = icmp eq ptr %.pre, null
  %or.cond32 = select i1 %10, i1 true, i1 %11
  br i1 %or.cond32, label %12, label %17

12:                                               ; preds = %8
  %13 = icmp ne ptr %9, null
  %14 = zext i1 %13 to i32
  %15 = icmp ne ptr %.pre, null
  %.neg29 = sext i1 %15 to i32
  %16 = add nsw i32 %.neg29, %14
  br label %36

17:                                               ; preds = %8
  %18 = getelementptr inbounds nuw i8, ptr %0, i64 8
  %19 = load ptr, ptr %18, align 8, !tbaa !9
  %20 = ptrtoint ptr %19 to i64
  %21 = ptrtoint ptr %9 to i64
  %22 = sub i64 %20, %21
  %23 = trunc i64 %22 to i32
  %24 = getelementptr inbounds nuw i8, ptr %1, i64 8
  %25 = load ptr, ptr %24, align 8, !tbaa !9
  %26 = ptrtoint ptr %25 to i64
  %27 = ptrtoint ptr %.pre to i64
  %.neg = sub i64 %27, %26
  %.neg28 = trunc i64 %.neg to i32
  %28 = add i32 %.neg28, %23
  %29 = icmp sgt i32 %28, 0
  br i1 %29, label %36, label %30

30:                                               ; preds = %17
  %31 = icmp slt i32 %28, 0
  br i1 %31, label %36, label %32

32:                                               ; preds = %30
  %33 = tail call i32 @strncmp(ptr noundef nonnull %9, ptr noundef nonnull %.pre, i64 noundef %22) #10
  %34 = icmp sgt i32 %33, 0
  br i1 %34, label %36, label %35

35:                                               ; preds = %32
  %.not = icmp ne i32 %33, 0
  %. = sext i1 %.not to i32
  br label %36

36:                                               ; preds = %35, %32, %30, %17, %12, %5
  %.0 = phi i32 [ %7, %5 ], [ %16, %12 ], [ 1, %17 ], [ -1, %30 ], [ 1, %32 ], [ %., %35 ]
  ret i32 %.0
}